Certificate:
    Data:
        Version: 3 (0x2)
        Serial Number:
            61:b3:59:42:0a:85:27:e8:48:cf:62:29:dd:53:c9:6b
        Signature Algorithm: sha256WithRSAEncryption
        Issuer: CN=server
        Validity
            Not Before: Feb 27 06:24:22 2020 GMT
            Not After : Jun  1 06:24:22 2022 GMT
        Subject: CN=server
        Subject Public Key Info:
            Public Key Algorithm: rsaEncryption
                RSA Public-Key: (2048 bit)
                Modulus:
                    00:b0:e3:b4:d2:51:a1:0c:75:ee:f6:e6:b7:66:f7:
                    6f:a6:a6:37:27:43:c5:30:18:76:bb:d1:c3:c8:34:
                    5b:e0:ce:40:11:8b:f0:5d:e1:71:97:a2:e7:f0:92:
                    f2:be:51:3d:e4:db:29:5b:37:3e:8c:ae:3c:29:bc:
                    ff:65:e9:c1:8d:b0:59:de:41:46:fc:b4:ef:0b:73:
                    10:15:f6:21:6e:f4:43:f0:76:99:07:22:39:66:3a:
                    0e:56:c0:76:8d:82:b6:08:31:e6:98:79:41:a9:c9:
                    86:83:83:fd:5b:cf:3a:33:8d:e5:cc:ee:78:25:af:
                    ab:25:69:de:94:9f:86:06:61:69:15:2a:dd:d0:c5:
                    0e:28:d0:2a:04:06:db:62:4b:36:f3:3a:e3:c5:c3:
                    30:52:b8:56:e3:44:67:0d:fe:79:1d:30:4b:31:44:
                    42:ef:e0:38:c9:a5:1e:8f:b8:89:ae:d8:4f:da:5b:
                    1f:35:22:10:4c:d0:a9:33:7e:01:9e:52:d3:b9:d1:
                    1c:04:31:c0:5a:fc:27:ff:ef:2e:fe:5a:ea:0b:b4:
                    a7:fd:78:58:9c:a9:37:4c:2e:d8:5f:5e:21:80:56:
                    d4:f5:0f:c2:d0:3c:c3:4e:e3:4e:a2:13:b0:f0:59:
                    e5:e7:92:22:9b:96:ac:9b:8e:8c:ea:bd:e1:f2:9c:
                    46:91
                Exponent: 65537 (0x10001)
        X509v3 extensions:
            X509v3 Basic Constraints: 
                CA:FALSE
            X509v3 Subject Key Identifier: 
                C3:A5:C6:E2:6C:40:3F:06:4D:5F:A2:4C:3C:07:6E:A7:CC:AA:6B:1B
            X509v3 Authority Key Identifier: 
                keyid:59:80:FD:57:A4:96:94:1E:B0:9F:93:9C:E0:7F:21:86:84:E0:D6:E0
                DirName:/CN=server
                serial:6C:0A:0D:1E:79:1B:B3:54:EC:4A:E1:83:CE:DF:F8:8D:A3:64:5F:AA

            X509v3 Extended Key Usage: 
                TLS Web Server Authentication
            X509v3 Key Usage: 
                Digital Signature, Key Encipherment
            X509v3 Subject Alternative Name: 
                DNS:server
    Signature Algorithm: sha256WithRSAEncryption
         59:77:f8:10:aa:67:5a:fc:e2:89:cb:fb:94:ab:e9:67:94:80:
         58:4a:cf:c0:5b:d5:48:e0:06:21:08:84:58:a3:0b:fd:99:a7:
         68:c6:09:d3:f9:bd:22:c5:0a:86:0f:44:6b:14:c4:ee:c2:83:
         fe:6c:84:41:a8:33:71:19:7d:65:02:53:b0:c4:f2:3f:2c:56:
         c1:cd:5d:90:8b:94:cf:12:c4:b8:56:f1:93:de:09:83:05:57:
         10:cd:4d:8c:cb:71:d3:a5:07:cf:0d:1c:fa:f3:6e:9e:61:88:
         a7:7a:77:06:5c:ce:6a:86:99:17:32:da:30:83:14:57:3a:fb:
         57:f2:06:65:e6:d5:1c:af:c0:26:4b:14:78:0e:0c:71:94:35:
         b2:13:ef:3c:62:00:1d:3f:b6:84:99:f5:61:18:ae:0d:e8:c0:
         3e:08:fc:86:cd:68:e2:f3:a7:23:9a:c8:ab:12:c6:4e:67:88:
         19:a7:41:14:fc:5c:01:fe:96:a1:b0:a5:b9:81:63:9f:5d:da:
         72:fe:6b:04:48:cf:7c:a4:94:97:a1:40:d3:26:a4:33:03:64:
         4e:82:74:81:e8:cc:f2:82:9e:70:21:df:4b:4b:46:f6:51:95:
         b3:11:26:3c:05:4b:19:b4:57:80:d8:68:8c:d0:f0:03:51:5f:
         a7:9e:1c:df
-----BEGIN CERTIFICATE-----
MIIDXTCCAkWgAwIBAgIQYbNZQgqFJ+hIz2Ip3VPJazANBgkqhkiG9w0BAQsFADAR
MQ8wDQYDVQQDDAZzZXJ2ZXIwHhcNMjAwMjI3MDYyNDIyWhcNMjIwNjAxMDYyNDIy
WjARMQ8wDQYDVQQDDAZzZXJ2ZXIwggEiMA0GCSqGSIb3DQEBAQUAA4IBDwAwggEK
AoIBAQCw47TSUaEMde725rdm92+mpjcnQ8UwGHa70cPINFvgzkARi/Bd4XGXoufw
kvK+UT3k2ylbNz6MrjwpvP9l6cGNsFneQUb8tO8LcxAV9iFu9EPwdpkHIjlmOg5W
wHaNgrYIMeaYeUGpyYaDg/1bzzozjeXM7nglr6slad6Un4YGYWkVKt3QxQ4o0CoE
BttiSzbzOuPFwzBSuFbjRGcN/nkdMEsxRELv4DjJpR6PuImu2E/aWx81IhBM0Kkz
fgGeUtO50RwEMcBa/Cf/7y7+WuoLtKf9eFicqTdMLthfXiGAVtT1D8LQPMNO406i
E7DwWeXnkiKblqybjozqveHynEaRAgMBAAGjgbAwga0wCQYDVR0TBAIwADAdBgNV
HQ4EFgQUw6XG4mxAPwZNX6JMPAdup8yqaxswTAYDVR0jBEUwQ4AUWYD9V6SWlB6w
n5Oc4H8hhoTg1uChFaQTMBExDzANBgNVBAMMBnNlcnZlcoIUbAoNHnkbs1TsSuGD
zt/4jaNkX6owEwYDVR0lBAwwCgYIKwYBBQUHAwEwCwYDVR0PBAQDAgWgMBEGA1Ud
EQQKMAiCBnNlcnZlcjANBgkqhkiG9w0BAQsFAAOCAQEAWXf4EKpnWvziicv7lKvp
Z5SAWErPwFvVSOAGIQiEWKML/ZmnaMYJ0/m9IsUKhg9EaxTE7sKD/myEQagzcRl9
ZQJTsMTyPyxWwc1dkIuUzxLEuFbxk94JgwVXEM1NjMtx06UHzw0c+vNunmGIp3p3
BlzOaoaZFzLaMIMUVzr7V/IGZebVHK/AJksUeA4McZQ1shPvPGIAHT+2hJn1YRiu
DejAPgj8hs1o4vOnI5rIqxLGTmeIGadBFPxcAf6WobCluYFjn13acv5rBEjPfKSU
l6FA0yakMwNkToJ0gejM8oKecCHfS0tG9lGVsxEmPAVLGbRXgNhojNDwA1Ffp54c
3w==
-----END CERTIFICATE-----
